Certificate:
    Data:
        Version: 3 (0x2)
        Serial Number: 6914194029487 (0x649d6143baf)
    Signature Algorithm: sha256WithRSAEncryption
        Issuer: C=US, O=Carillon Federal Services Inc., OU=Certification Authorities, CN=Carillon Federal Services NFI Root CA1
        Validity
            Not Before: Apr 29 14:54:33 2016 GMT
            Not After : Apr 30 14:54:33 2028 GMT
        Subject: C=US, O=Carillon Federal Services Inc., OU=Certification Authorities, CN=Carillon Federal Services PIV-I CA2
        Subject Public Key Info:
            Public Key Algorithm: rsaEncryption
                Public-Key: (4096 bit)
                Modulus:
                    00:a3:d9:57:29:15:ea:66:d8:56:4f:42:e9:06:df:
                    56:03:73:81:4f:99:df:5f:47:b4:de:0d:bf:3f:a3:
                    d4:07:c0:b5:34:b9:84:5b:59:56:1f:c7:2e:a4:be:
                    26:44:dc:c4:bc:62:92:6b:2f:75:b8:1e:60:82:8f:
                    de:39:7b:47:3a:dc:21:92:30:f0:35:ea:a1:e9:55:
                    6c:d4:cc:3a:e6:5f:d3:fc:b4:f6:01:7e:ae:81:bd:
                    6d:1e:cc:39:93:ba:f1:ee:6e:55:3f:4f:59:8e:0c:
                    e1:a4:40:74:a3:64:da:6a:87:cf:d9:59:e1:f8:ba:
                    15:a3:6e:ad:8d:84:8d:ba:02:e8:29:83:44:4d:df:
                    a9:76:2a:eb:fd:c3:84:67:6a:02:2f:65:24:82:42:
                    9b:8f:94:50:91:12:20:4a:76:f7:63:a8:22:57:4d:
                    34:81:8c:89:44:69:10:71:c5:b8:5d:69:49:90:63:
                    f5:0b:ec:d8:31:d6:eb:15:1a:dc:17:d9:66:7e:2d:
                    bd:65:2f:89:fb:c6:44:07:e4:cd:ed:c1:2d:c4:6b:
                    e3:29:33:9c:49:15:82:59:1e:46:b1:13:d2:ca:b2:
                    ec:29:03:a0:20:1b:44:72:8d:de:fe:4a:84:61:c4:
                    23:8d:c7:d3:9d:c9:73:8e:41:ea:0c:26:a0:6a:1d:
                    c4:84:78:72:3c:e2:3b:e1:02:c5:de:f1:ef:ba:f4:
                    cf:95:6e:31:c0:86:8b:ae:1e:c3:d4:63:e9:94:ab:
                    77:2d:c4:74:e5:c5:91:5f:67:bd:77:02:de:a1:eb:
                    55:38:7a:e0:7a:5e:f3:0a:23:96:4c:aa:56:98:9f:
                    a4:a6:7b:0a:36:86:f3:96:c9:e8:a8:4c:80:23:4b:
                    af:c0:3e:6f:82:31:8b:07:8a:78:12:ea:01:75:75:
                    91:7c:93:4e:ff:6f:9c:07:99:ab:8b:e0:8b:28:9c:
                    61:77:32:b7:88:16:2c:fd:f2:6d:e1:1d:47:44:4d:
                    88:65:03:b2:ba:1b:ee:b2:7e:2d:9c:3a:f8:05:fa:
                    2d:2a:82:a5:77:7e:f0:cb:16:9d:98:ec:4a:1f:70:
                    d3:b4:bb:3f:16:18:7d:39:52:35:3b:9d:bb:b7:35:
                    f8:d2:9a:7d:ec:6b:f9:1b:9b:d4:05:a1:b4:a6:ee:
                    a4:89:ed:30:46:3d:c8:27:8c:35:aa:fc:a9:91:61:
                    76:ec:c2:b7:19:b0:11:b8:14:d5:d2:88:a9:7f:c7:
                    45:0b:18:84:e1:da:4e:e2:d7:85:9d:a7:96:0a:0f:
                    9a:f5:1b:64:fd:52:1c:e5:79:0a:f9:46:6f:f9:a7:
                    48:b5:f7:e1:88:60:3b:3a:b3:58:3f:83:82:e3:2a:
                    2f:1a:4f
                Exponent: 65537 (0x10001)
        X509v3 extensions:
            X509v3 Subject Key Identifier: 
                09:E4:78:56:41:02:A4:6B:20:DA:93:E8:45:F6:31:E1:4C:C4:C4:FC
            X509v3 Authority Key Identifier: 
                keyid:E3:46:C2:EB:BD:8C:8D:11:93:69:FB:7D:EA:B4:C3:59:7E:B4:AC:ED

            X509v3 Basic Constraints: critical
                CA:TRUE
            X509v3 Key Usage: critical
                Digital Signature, Non Repudiation, Certificate Sign, CRL Sign
            X509v3 Certificate Policies: 
                Policy: CFS Basic Software Assurance
                Policy: CFS Basic Hardware Assurance
                Policy: CFS Medium Software Assurance
                Policy: CFS Medium Hardware Assurance
                Policy: CFS Basic 256 Software Assurance
                Policy: CFS Basic 256 Hardware Assurance
                Policy: CFS Medium Software 256 Assurance
                Policy: CFS Medium Hardware 256 Assurance
                Policy: CFS IceCAP Hardware Assurance
                  CPS: https://pub.carillonfedserv.com/CertificatePolicy.pdf
                  User Notice:
                    Explicit Text: This certificate has been issued in accordance with the Carillon Federal Services Inc. Certificate Policy as found in the CPSpointer field
                Policy: CFS IceCAP Card-Auth Assurance
                  CPS: https://pub.carillonfedserv.com/CertificatePolicy.pdf
                  User Notice:
                    Explicit Text: This certificate has been issued in accordance with the Carillon Federal Services Inc. Certificate Policy as found in the CPSpointer field
                Policy: CFS IceCAP Content Signer Assurance
                  CPS: https://pub.carillonfedserv.com/CertificatePolicy.pdf
                  User Notice:
                    Explicit Text: This certificate has been issued in accordance with the Carillon Federal Services Inc. Certificate Policy as found in the CPSpointer field

            Authority Information Access: 
                CA Issuers - URI:http://pub.carillonfedserv.com/CAcerts/CFSRCA1.p7c

            X509v3 CRL Distribution Points: 

                Full Name:
                  URI:http://pub.carillonfedserv.com/CRL/CFSRCA1.crl

    Signature Algorithm: sha256WithRSAEncryption
         65:b9:96:07:1e:3a:12:a7:7c:ec:53:22:b4:9a:c4:fe:f6:26:
         71:68:4e:c7:b5:53:6c:3b:de:d7:55:11:21:72:b1:80:37:e2:
         cb:74:e3:ab:90:c5:f9:ba:7e:f5:9a:c1:90:a5:17:b0:88:4b:
         7e:44:62:6b:bb:93:1d:ab:90:9d:63:16:1b:dd:25:b0:67:60:
         0b:c3:5f:4e:97:da:29:03:a1:5b:9d:1c:0b:10:aa:e2:0e:b7:
         43:3e:97:73:fa:c6:b2:7d:c1:85:ac:bd:59:4e:1b:a9:78:55:
         dd:19:c7:c2:96:7d:b5:73:23:54:48:88:fb:3e:13:d3:bb:e2:
         5e:ac:0b:6a:ea:56:94:f2:ec:a8:03:a9:a5:14:1c:56:0b:6f:
         de:79:f4:63:21:4b:8d:bf:72:97:3d:e3:1f:65:da:b6:73:c4:
         e7:87:28:9a:35:e1:bb:7b:79:fe:a4:32:63:d6:65:24:ac:f9:
         5e:78:d3:8d:d6:a0:f4:95:8b:48:85:aa:c3:aa:d1:0d:0f:09:
         b8:49:05:91:61:d3:8f:c1:e4:62:ee:b7:09:36:23:52:b2:c8:
         6c:2b:29:14:c6:81:9b:64:94:85:e4:e7:24:92:6a:ed:75:e2:
         70:58:af:94:bb:92:29:55:8a:a2:27:9d:a4:7f:c3:86:83:88:
         77:cf:53:20:39:50:b6:b4:0f:4b:b7:d8:d6:aa:48:5d:1f:0a:
         4c:d9:b1:40:76:6c:c7:ce:ca:da:39:3c:2a:29:fa:45:ad:e1:
         43:44:fb:3e:29:dd:e1:81:c0:a7:3d:cd:6e:07:25:83:1b:ba:
         8e:7c:7c:5e:56:1e:73:a5:bf:26:e2:db:dc:f1:63:3b:0f:25:
         3f:1c:cb:8c:84:a2:f6:38:22:1a:20:a4:98:7f:53:6f:b6:4b:
         48:17:c4:c1:ba:65:ae:59:31:42:36:90:2f:67:f1:fa:7c:84:
         aa:e2:ad:41:1a:ce:17:da:bf:81:ba:90:24:15:be:ff:16:c0:
         df:f8:db:c7:6f:f9:1e:d2:c0:ac:a6:b8:70:4c:99:d4:fe:b4:
         46:f3:4c:cc:ae:6a:c7:41:24:6d:e1:1a:e2:67:10:50:00:91:
         3f:26:86:5c:77:b7:69:85:bc:59:06:19:c2:0c:2d:ae:94:4e:
         5c:9a:e6:93:f7:ac:18:c2:c2:5e:e4:75:67:ac:64:93:26:e0:
         68:e2:25:61:a7:6d:f8:26:60:d8:a5:3a:07:53:25:e7:20:a0:
         fb:7a:61:17:16:55:1e:f2:fa:27:37:2f:04:cb:ad:c8:bb:2e:
         14:6e:6a:d1:86:fb:ae:8b:a5:71:5a:a2:34:02:79:ab:15:5b:
         55:1d:46:9d:bd:9f:99:72
-----BEGIN CERTIFICATE-----
MIIJ7zCCB9egAwIBAgIGBknWFDuvMA0GCSqGSIb3DQEBCwUAMIGLMQswCQYDVQQG
EwJVUzEnMCUGA1UEChMeQ2FyaWxsb24gRmVkZXJhbCBTZXJ2aWNlcyBJbmMuMSIw
IAYDVQQLExlDZXJ0aWZpY2F0aW9uIEF1dGhvcml0aWVzMS8wLQYDVQQDEyZDYXJp
bGxvbiBGZWRlcmFsIFNlcnZpY2VzIE5GSSBSb290IENBMTAeFw0xNjA0MjkxNDU0
MzNaFw0yODA0MzAxNDU0MzNaMIGIMQswCQYDVQQGEwJVUzEnMCUGA1UEChMeQ2Fy
aWxsb24gRmVkZXJhbCBTZXJ2aWNlcyBJbmMuMSIwIAYDVQQLExlDZXJ0aWZpY2F0
aW9uIEF1dGhvcml0aWVzMSwwKgYDVQQDEyNDYXJpbGxvbiBGZWRlcmFsIFNlcnZp
Y2VzIFBJVi1JIENBMjCCAiIwDQYJKoZIhvcNAQEBBQADggIPADCCAgoCggIBAKPZ
VykV6mbYVk9C6QbfVgNzgU+Z319HtN4Nvz+j1AfAtTS5hFtZVh/HLqS+JkTcxLxi
kmsvdbgeYIKP3jl7RzrcIZIw8DXqoelVbNTMOuZf0/y09gF+roG9bR7MOZO68e5u
VT9PWY4M4aRAdKNk2mqHz9lZ4fi6FaNurY2EjboC6CmDRE3fqXYq6/3DhGdqAi9l
JIJCm4+UUJESIEp292OoIldNNIGMiURpEHHFuF1pSZBj9Qvs2DHW6xUa3BfZZn4t
vWUvifvGRAfkze3BLcRr4ykznEkVglkeRrET0sqy7CkDoCAbRHKN3v5KhGHEI43H
053Jc45B6gwmoGodxIR4cjziO+ECxd7x77r0z5VuMcCGi64ew9Rj6ZSrdy3EdOXF
kV9nvXcC3qHrVTh64Hpe8wojlkyqVpifpKZ7CjaG85bJ6KhMgCNLr8A+b4IxiweK
eBLqAXV1kXyTTv9vnAeZq4vgiyicYXcyt4gWLP3ybeEdR0RNiGUDsrob7rJ+LZw6
+AX6LSqCpXd+8MsWnZjsSh9w07S7PxYYfTlSNTudu7c1+NKafexr+Rub1AWhtKbu
pIntMEY9yCeMNar8qZFhduzCtxmwEbgU1dKIqX/HRQsYhOHaTuLXhZ2nlgoPmvUb
ZP1SHOV5CvlGb/mnSLX34YhgOzqzWD+DguMqLxpPAgMBAAGjggRYMIIEVDAdBgNV
HQ4EFgQUCeR4VkECpGsg2pPoRfYx4UzExPwwHwYDVR0jBBgwFoAU40bC672MjRGT
aft96rTDWX60rO0wDwYDVR0TAQH/BAUwAwEB/zAOBgNVHQ8BAf8EBAMCAcYwggNe
BgNVHSAEggNVMIIDUTANBgsrBgEEAYLkJgMBAzANBgsrBgEEAYLkJgMBBDANBgsr
BgEEAYLkJgMBBzANBgsrBgEEAYLkJgMBCDANBgsrBgEEAYLkJgMBCTANBgsrBgEE
AYLkJgMBCjANBgsrBgEEAYLkJgMBCzANBgsrBgEEAYLkJgMBDDCB8AYLKwYBBAGC
5CYDARQwgeAwQQYIKwYBBQUHAgEWNWh0dHBzOi8vcHViLmNhcmlsbG9uZmVkc2Vy
di5jb20vQ2VydGlmaWNhdGVQb2xpY3kucGRmMIGaBggrBgEFBQcCAjCBjRqBilRo
aXMgY2VydGlmaWNhdGUgaGFzIGJlZW4gaXNzdWVkIGluIGFjY29yZGFuY2Ugd2l0
aCB0aGUgQ2FyaWxsb24gRmVkZXJhbCBTZXJ2aWNlcyBJbmMuIENlcnRpZmljYXRl
IFBvbGljeSBhcyBmb3VuZCBpbiB0aGUgQ1BTcG9pbnRlciBmaWVsZDCB8AYLKwYB
BAGC5CYDARUwgeAwQQYIKwYBBQUHAgEWNWh0dHBzOi8vcHViLmNhcmlsbG9uZmVk
c2Vydi5jb20vQ2VydGlmaWNhdGVQb2xpY3kucGRmMIGaBggrBgEFBQcCAjCBjRqB
ilRoaXMgY2VydGlmaWNhdGUgaGFzIGJlZW4gaXNzdWVkIGluIGFjY29yZGFuY2Ug
d2l0aCB0aGUgQ2FyaWxsb24gRmVkZXJhbCBTZXJ2aWNlcyBJbmMuIENlcnRpZmlj
YXRlIFBvbGljeSBhcyBmb3VuZCBpbiB0aGUgQ1BTcG9pbnRlciBmaWVsZDCB8AYL
KwYBBAGC5CYDARYwgeAwQQYIKwYBBQUHAgEWNWh0dHBzOi8vcHViLmNhcmlsbG9u
ZmVkc2Vydi5jb20vQ2VydGlmaWNhdGVQb2xpY3kucGRmMIGaBggrBgEFBQcCAjCB
jRqBilRoaXMgY2VydGlmaWNhdGUgaGFzIGJlZW4gaXNzdWVkIGluIGFjY29yZGFu
Y2Ugd2l0aCB0aGUgQ2FyaWxsb24gRmVkZXJhbCBTZXJ2aWNlcyBJbmMuIENlcnRp
ZmljYXRlIFBvbGljeSBhcyBmb3VuZCBpbiB0aGUgQ1BTcG9pbnRlciBmaWVsZDBO
BggrBgEFBQcBAQRCMEAwPgYIKwYBBQUHMAKGMmh0dHA6Ly9wdWIuY2FyaWxsb25m
ZWRzZXJ2LmNvbS9DQWNlcnRzL0NGU1JDQTEucDdjMD8GA1UdHwQ4MDYwNKAyoDCG
Lmh0dHA6Ly9wdWIuY2FyaWxsb25mZWRzZXJ2LmNvbS9DUkwvQ0ZTUkNBMS5jcmww
DQYJKoZIhvcNAQELBQADggIBAGW5lgceOhKnfOxTIrSaxP72JnFoTse1U2w73tdV
ESFysYA34st046uQxfm6fvWawZClF7CIS35EYmu7kx2rkJ1jFhvdJbBnYAvDX06X
2ikDoVudHAsQquIOt0M+l3P6xrJ9wYWsvVlOG6l4Vd0Zx8KWfbVzI1RIiPs+E9O7
4l6sC2rqVpTy7KgDqaUUHFYLb9559GMhS42/cpc94x9l2rZzxOeHKJo14bt7ef6k
MmPWZSSs+V54043WoPSVi0iFqsOq0Q0PCbhJBZFh04/B5GLutwk2I1KyyGwrKRTG
gZtklIXk5ySSau114nBYr5S7kilViqInnaR/w4aDiHfPUyA5ULa0D0u32NaqSF0f
CkzZsUB2bMfOyto5PCop+kWt4UNE+z4p3eGBwKc9zW4HJYMbuo58fF5WHnOlvybi
29zxYzsPJT8cy4yEovY4IhogpJh/U2+2S0gXxMG6Za5ZMUI2kC9n8fp8hKrirUEa
zhfav4G6kCQVvv8WwN/428dv+R7SwKymuHBMmdT+tEbzTMyuasdBJG3hGuJnEFAA
kT8mhlx3t2mFvFkGGcIMLa6UTlya5pP3rBjCwl7kdWesZJMm4GjiJWGnbfgmYNil
OgdTJecgoPt6YRcWVR7y+ic3LwTLrci7LhRuatGG+66LpXFaojQCeasVW1UdRp29
n5ly
-----END CERTIFICATE-----
